target datalayout = "e-m:e-p270:32:32-p271:32:32-p272:64:64-i64:64-i128:128-f80:128-n8:16:32:64-S128"
target triple = "x86_64-pc-linux-gnu"

%struct.AVChannelLayout = type { i32, i32, %union.anon, ptr }
%union.anon = type { i64 }

; Function Attrs: nounwind uwtable
define i32 @ff_mov_get_channel_positions_from_layout(ptr noundef %0, ptr noundef %1, i32 noundef %2) #0 {
  %4 = alloca i32, align 4
  %5 = alloca ptr, align 8
  %6 = alloca ptr, align 8
  %7 = alloca i32, align 4
  %8 = alloca i32, align 4
  %9 = alloca i32, align 4
  %10 = alloca i32, align 4
  %11 = alloca i32, align 4
  store ptr %0, ptr %5, align 8, !tbaa !34
  store ptr %1, ptr %6, align 8, !tbaa !70
  store i32 %2, ptr %7, align 4, !tbaa !14
  call void @llvm.lifetime.start.p0(i64 4, ptr %8) #4
  %12 = load i32, ptr %7, align 4, !tbaa !14
  %13 = load ptr, ptr %5, align 8, !tbaa !34
  %14 = getelementptr inbounds nuw %struct.AVChannelLayout, ptr %13, i32 0, i32 1
  %15 = load i32, ptr %14, align 4, !tbaa !38
  %16 = icmp slt i32 %12, %15
  br i1 %16, label %17, label %18

17:                                               ; preds = %3
  store i32 -22, ptr %4, align 4
  store i32 1, ptr %9, align 4
  br label %78

18:                                               ; preds = %3
  call void @llvm.lifetime.start.p0(i64 4, ptr %10) #4
  store i32 0, ptr %10, align 4, !tbaa !14
  br label %19

19:                                               ; preds = %72, %18
  %20 = load i32, ptr %10, align 4, !tbaa !14
  %21 = load ptr, ptr %5, align 8, !tbaa !34
  %22 = getelementptr inbounds nuw %struct.AVChannelLayout, ptr %21, i32 0, i32 1
  %23 = load i32, ptr %22, align 4, !tbaa !38
  %24 = icmp slt i32 %20, %23
  br i1 %24, label %26, label %25

25:                                               ; preds = %19
  store i32 2, ptr %9, align 4
  br label %75

26:                                               ; preds = %19
  %27 = load ptr, ptr %6, align 8, !tbaa !70
  %28 = load i32, ptr %10, align 4, !tbaa !14
  %29 = sext i32 %28 to i64
  %30 = getelementptr inbounds i8, ptr %27, i64 %29
  store i8 127, ptr %30, align 1, !tbaa !31
  %31 = load ptr, ptr %5, align 8, !tbaa !34
  %32 = load i32, ptr %10, align 4, !tbaa !14
  %33 = call i32 @av_channel_layout_channel_from_index(ptr noundef %31, i32 noundef %32)
  store i32 %33, ptr %8, align 4, !tbaa !14
  %34 = load i32, ptr %8, align 4, !tbaa !14
  %35 = icmp eq i32 %34, -1
  br i1 %35, label %36, label %37

36:                                               ; preds = %26
  store i32 -22, ptr %4, align 4
  store i32 1, ptr %9, align 4
  br label %75

37:                                               ; preds = %26
  call void @llvm.lifetime.start.p0(i64 4, ptr %11) #4
  store i32 0, ptr %11, align 4, !tbaa !14
  br label %38

38:                                               ; preds = %58, %37
  %39 = load i32, ptr %11, align 4, !tbaa !14
  %40 = sext i32 %39 to i64
  %41 = icmp ult i64 %40, 43
  br i1 %41, label %43, label %42

42:                                               ; preds = %38
  store i32 5, ptr %9, align 4
  br label %61

43:                                               ; preds = %38
  %44 = load i32, ptr %11, align 4, !tbaa !14
  %45 = sext i32 %44 to i64
  %46 = getelementptr inbounds [43 x i32], ptr @iso_channel_position, i64 0, i64 %45
  %47 = load i32, ptr %46, align 4, !tbaa !14
  %48 = load i32, ptr %8, align 4, !tbaa !14
  %49 = icmp eq i32 %47, %48
  br i1 %49, label %50, label %57

50:                                               ; preds = %43
  %51 = load i32, ptr %11, align 4, !tbaa !14
  %52 = trunc i32 %51 to i8
  %53 = load ptr, ptr %6, align 8, !tbaa !70
  %54 = load i32, ptr %10, align 4, !tbaa !14
  %55 = sext i32 %54 to i64
  %56 = getelementptr inbounds i8, ptr %53, i64 %55
  store i8 %52, ptr %56, align 1, !tbaa !31
  store i32 5, ptr %9, align 4
  br label %61

57:                                               ; preds = %43
  br label %58

58:                                               ; preds = %57
  %59 = load i32, ptr %11, align 4, !tbaa !14
  %60 = add nsw i32 %59, 1
  store i32 %60, ptr %11, align 4, !tbaa !14
  br label %38, !llvm.loop !71

61:                                               ; preds = %50, %42
  call void @llvm.lifetime.end.p0(i64 4, ptr %11) #4
  br label %62

62:                                               ; preds = %61
  %63 = load ptr, ptr %6, align 8, !tbaa !70
  %64 = load i32, ptr %10, align 4, !tbaa !14
  %65 = sext i32 %64 to i64
  %66 = getelementptr inbounds i8, ptr %63, i64 %65
  %67 = load i8, ptr %66, align 1, !tbaa !31
  %68 = zext i8 %67 to i32
  %69 = icmp eq i32 %68, 127
  br i1 %69, label %70, label %71

70:                                               ; preds = %62
  store i32 -22, ptr %4, align 4
  store i32 1, ptr %9, align 4
  br label %75

71:                                               ; preds = %62
  br label %72

72:                                               ; preds = %71
  %73 = load i32, ptr %10, align 4, !tbaa !14
  %74 = add nsw i32 %73, 1
  store i32 %74, ptr %10, align 4, !tbaa !14
  br label %19, !llvm.loop !72

75:                                               ; preds = %70, %36, %25
  call void @llvm.lifetime.end.p0(i64 4, ptr %10) #4
  %76 = load i32, ptr %9, align 4
  switch i32 %76, label %78 [
    i32 2, label %77
  ]

77:                                               ; preds = %75
  store i32 0, ptr %4, align 4
  store i32 1, ptr %9, align 4
  br label %78

78:                                               ; preds = %77, %75, %17
  call void @llvm.lifetime.end.p0(i64 4, ptr %8) #4
  %79 = load i32, ptr %4, align 4
  ret i32 %79
}