; Function Attrs: nounwind uwtable
define range(i32 -22, 1) i32 @ff_mov_get_channel_positions_from_layout(ptr noundef %0, ptr noundef captures(none) %1, i32 noundef %2) local_unnamed_addr #0 {
  %4 = getelementptr inbounds nuw i8, ptr %0, i64 4
  %5 = load i32, ptr %4, align 4, !tbaa !21
  %6 = icmp slt i32 %2, %5
  br i1 %6, label %.loopexit, label %.preheader25

.preheader25:                                     ; preds = %3
  %.not28 = icmp sgt i32 %5, 0
  br i1 %.not28, label %.lr.ph, label %.loopexit

.lr.ph:                                           ; preds = %.preheader25, %18
  %indvars.iv36 = phi i64 [ %indvars.iv.next37, %18 ], [ 0, %.preheader25 ]
  %7 = getelementptr inbounds nuw i8, ptr %1, i64 %indvars.iv36
  store i8 127, ptr %7, align 1, !tbaa !23
  %8 = trunc nuw nsw i64 %indvars.iv36 to i32
  %9 = tail call i32 @av_channel_layout_channel_from_index(ptr noundef nonnull %0, i32 noundef %8) #3
  %10 = icmp eq i32 %9, -1
  br i1 %10, label %.loopexit, label %.preheader

.preheader:                                       ; preds = %.lr.ph, %15
  %indvars.iv = phi i64 [ %indvars.iv.next, %15 ], [ 0, %.lr.ph ]
  %11 = getelementptr inbounds nuw [43 x i32], ptr @iso_channel_position, i64 0, i64 %indvars.iv
  %12 = load i32, ptr %11, align 4, !tbaa !20
  %13 = icmp eq i32 %12, %9
  br i1 %13, label %.thread, label %15

.thread:                                          ; preds = %.preheader
  %14 = trunc i64 %indvars.iv to i8
  store i8 %14, ptr %7, align 1, !tbaa !23
  br label %18

15:                                               ; preds = %.preheader
  %indvars.iv.next = add nuw nsw i64 %indvars.iv, 1
  %exitcond.not = icmp eq i64 %indvars.iv.next, 43
  br i1 %exitcond.not, label %16, label %.preheader, !llvm.loop !57

16:                                               ; preds = %15
  %.pr = load i8, ptr %7, align 1, !tbaa !23
  %17 = icmp eq i8 %.pr, 127
  br i1 %17, label %.loopexit, label %18

18:                                               ; preds = %.thread, %16
  %indvars.iv.next37 = add nuw nsw i64 %indvars.iv36, 1
  %19 = load i32, ptr %4, align 4, !tbaa !21
  %20 = sext i32 %19 to i64
  %.not = icmp slt i64 %indvars.iv.next37, %20
  br i1 %.not, label %.lr.ph, label %.loopexit, !llvm.loop !58

.loopexit:                                        ; preds = %16, %.lr.ph, %18, %.preheader25, %3
  %.022 = phi i32 [ -22, %3 ], [ 0, %.preheader25 ], [ -22, %16 ], [ -22, %.lr.ph ], [ 0, %18 ]
  ret i32 %.022
}